; Function Attrs: nofree norecurse nosync nounwind memory(readwrite, inaccessiblemem: none) uwtable
define internal range(i32 -1094995529, 1) i32 @decode_tdlt(ptr noundef captures(none) %0, ptr noundef %1, i32 noundef %2, i32 noundef %3) #7 {
  %5 = mul nsw i32 %3, %2
  %6 = sext i32 %5 to i64
  %7 = getelementptr inbounds i8, ptr %1, i64 %6
  %8 = getelementptr inbounds nuw i8, ptr %0, i64 8
  %9 = load ptr, ptr %8, align 8, !tbaa !41
  %10 = load ptr, ptr %0, align 8, !tbaa !38
  %11 = ptrtoint ptr %9 to i64
  %12 = ptrtoint ptr %10 to i64
  %13 = sub i64 %11, %12
  %14 = icmp slt i64 %13, 4
  br i1 %14, label %bytestream2_get_le32.exit.thread, label %bytestream2_get_le32.exit

bytestream2_get_le32.exit.thread:                 ; preds = %4
  store ptr %9, ptr %0, align 8, !tbaa !38
  br label %._crit_edge

bytestream2_get_le32.exit:                        ; preds = %4
  %15 = getelementptr inbounds nuw i8, ptr %10, i64 4
  store ptr %15, ptr %0, align 8, !tbaa !42
  %16 = load i32, ptr %10, align 1, !tbaa !34
  %.not24 = icmp eq i32 %16, 0
  br i1 %.not24, label %._crit_edge, label %.lr.ph

.lr.ph:                                           ; preds = %bytestream2_get_le32.exit
  %17 = ptrtoint ptr %7 to i64
  br label %18

18:                                               ; preds = %.lr.ph, %46
  %19 = phi ptr [ %15, %.lr.ph ], [ %53, %46 ]
  %.in = phi i32 [ %16, %.lr.ph ], [ %20, %46 ]
  %.02125 = phi ptr [ %1, %.lr.ph ], [ %54, %46 ]
  %20 = add i32 %.in, -1
  %21 = load ptr, ptr %8, align 8, !tbaa !41
  %22 = ptrtoint ptr %21 to i64
  %23 = ptrtoint ptr %19 to i64
  %24 = sub i64 %22, %23
  %25 = trunc i64 %24 to i32
  %26 = icmp slt i32 %25, 2
  br i1 %26, label %._crit_edge, label %27

27:                                               ; preds = %18
  %28 = getelementptr inbounds nuw i8, ptr %19, i64 1
  store ptr %28, ptr %0, align 8, !tbaa !42
  %29 = load i8, ptr %19, align 1, !tbaa !34
  %30 = zext i8 %29 to i32
  %31 = shl nuw nsw i32 %30, 1
  %32 = getelementptr inbounds nuw i8, ptr %19, i64 2
  store ptr %32, ptr %0, align 8, !tbaa !42
  %33 = load i8, ptr %28, align 1, !tbaa !34
  %34 = zext i8 %33 to i32
  %35 = shl nuw nsw i32 %34, 1
  %36 = ptrtoint ptr %.02125 to i64
  %37 = sub i64 %17, %36
  %38 = add nuw nsw i32 %35, %31
  %39 = zext nneg i32 %38 to i64
  %40 = icmp slt i64 %37, %39
  br i1 %40, label %._crit_edge, label %41

41:                                               ; preds = %27
  %42 = ptrtoint ptr %32 to i64
  %43 = sub i64 %22, %42
  %44 = trunc i64 %43 to i32
  %45 = icmp sgt i32 %31, %44
  br i1 %45, label %._crit_edge, label %46

46:                                               ; preds = %41
  %47 = zext nneg i32 %35 to i64
  %48 = getelementptr inbounds nuw i8, ptr %.02125, i64 %47
  %49 = zext nneg i32 %31 to i64
  %50 = tail call i64 @llvm.smin.i64(i64 %43, i64 %49)
  %51 = and i64 %50, 4294967295
  tail call void @llvm.memcpy.p0.p0.i64(ptr align 1 %48, ptr nonnull align 1 %32, i64 %51, i1 false)
  %52 = load ptr, ptr %0, align 8, !tbaa !38
  %53 = getelementptr inbounds nuw i8, ptr %52, i64 %51
  store ptr %53, ptr %0, align 8, !tbaa !38
  %54 = getelementptr inbounds nuw i8, ptr %48, i64 %49
  %.not = icmp eq i32 %20, 0
  br i1 %.not, label %._crit_edge, label %18, !llvm.loop !58

._crit_edge:                                      ; preds = %18, %41, %27, %46, %bytestream2_get_le32.exit.thread, %bytestream2_get_le32.exit
  %.0 = phi i32 [ 0, %bytestream2_get_le32.exit ], [ 0, %bytestream2_get_le32.exit.thread ], [ 0, %46 ], [ -1094995529, %27 ], [ -1094995529, %41 ], [ -1094995529, %18 ]
  ret i32 %.0
}